; Function Attrs: mustprogress uwtable
define noundef nonnull ptr @_Z18coco_string_createPKwii(ptr noundef %0, i32 noundef %1, i32 noundef %2) local_unnamed_addr #2 {
  %.not = icmp eq ptr %0, null
  %spec.select = select i1 %.not, i32 0, i32 %2
  %4 = add nsw i32 %spec.select, 1
  %5 = zext nneg i32 %4 to i64
  %6 = icmp slt i32 %spec.select, -1
  %7 = shl nuw nsw i64 %5, 2
  %8 = select i1 %6, i64 -1, i64 %7
  %9 = tail call noalias noundef nonnull ptr @_Znam(i64 noundef %8) #21
  %10 = sext i32 %1 to i64
  %11 = getelementptr inbounds i32, ptr %0, i64 %10
  %12 = sext i32 %spec.select to i64
  %13 = tail call ptr @wcsncpy(ptr noundef nonnull %9, ptr noundef %11, i64 noundef %12) #22
  %14 = getelementptr inbounds i32, ptr %9, i64 %12
  store i32 0, ptr %14, align 4
  ret ptr %9
}